target datalayout = "e-m:e-p270:32:32-p271:32:32-p272:64:64-i64:64-i128:128-f80:128-n8:16:32:64-S128"
target triple = "x86_64-pc-linux-gnu"

%struct.Gia_Man_t_ = type { ptr, ptr, i32, i32, i32, i32, ptr, ptr, i32, i32, i32, ptr, ptr, %struct.Vec_Int_t_, %struct.Vec_Int_t_, i32, i32, i32, %struct.Vec_Int_t_, ptr, ptr, ptr, i32, i32, i32, i32, ptr, ptr, ptr, ptr, ptr, i32, i32, ptr, i32, ptr, ptr, ptr, ptr, ptr, ptr, ptr, ptr, ptr, ptr, ptr, ptr, ptr, ptr, ptr, ptr, ptr, ptr, %struct.Vec_Int_t_, %struct.Vec_Int_t_, ptr, ptr, ptr, ptr, ptr, ptr, ptr, ptr, ptr, ptr, ptr, ptr, ptr, ptr, ptr, ptr, ptr, ptr, ptr, ptr, ptr, i32, float, float, ptr, ptr, i32, ptr, ptr, ptr, ptr, ptr, ptr, ptr, ptr, ptr, ptr, ptr, ptr, ptr, ptr, ptr, i64, i64, ptr, ptr, i32, i32, i32, i32, i32, i32, i32, i32, i32, i32, i32, i32, ptr, ptr, ptr, ptr, ptr, ptr, ptr, ptr, i32, i32, i32, ptr, i32, i32, ptr, ptr, ptr, ptr, ptr, ptr, i32, i32, ptr, %struct.Vec_Int_t_, %struct.Vec_Int_t_, %struct.Vec_Int_t_, ptr, ptr, ptr }
%struct.Vec_Int_t_ = type { i32, i32, ptr }
%struct.Vec_Wrd_t_ = type { i32, i32, ptr }
%struct.Gia_Rpr_t_ = type { i32 }

; Function Attrs: nounwind uwtable
define internal ptr @Vec_WrdEntryP(ptr noundef %0, i32 noundef %1) #0 {
  %3 = alloca ptr, align 8
  %4 = alloca i32, align 4
  store ptr %0, ptr %3, align 8
  store i32 %1, ptr %4, align 4
  %5 = load ptr, ptr %3, align 8
  %6 = getelementptr inbounds %struct.Vec_Wrd_t_, ptr %5, i32 0, i32 2
  %7 = load ptr, ptr %6, align 8
  %8 = load i32, ptr %4, align 4
  %9 = sext i32 %8 to i64
  %10 = getelementptr inbounds i64, ptr %7, i64 %9
  ret ptr %10
}

; Function Attrs: nounwind uwtable
define internal ptr @Cec2_ObjSim(ptr noundef %0, i32 noundef %1) #0 {
  %3 = alloca ptr, align 8
  %4 = alloca i32, align 4
  store ptr %0, ptr %3, align 8
  store i32 %1, ptr %4, align 4
  %5 = load ptr, ptr %3, align 8
  %6 = getelementptr inbounds %struct.Gia_Man_t_, ptr %5, i32 0, i32 113
  %7 = load ptr, ptr %6, align 8
  %8 = load ptr, ptr %3, align 8
  %9 = getelementptr inbounds %struct.Gia_Man_t_, ptr %8, i32 0, i32 109
  %10 = load i32, ptr %9, align 8
  %11 = load i32, ptr %4, align 4
  %12 = mul nsw i32 %10, %11
  %13 = call ptr @Vec_WrdEntryP(ptr noundef %7, i32 noundef %12)
  ret ptr %13
}

; Function Attrs: nounwind uwtable
define internal void @Gia_ObjSetNext(ptr noundef %0, i32 noundef %1, i32 noundef %2) #0 {
  %4 = alloca ptr, align 8
  %5 = alloca i32, align 4
  %6 = alloca i32, align 4
  store ptr %0, ptr %4, align 8
  store i32 %1, ptr %5, align 4
  store i32 %2, ptr %6, align 4
  %7 = load i32, ptr %6, align 4
  %8 = load ptr, ptr %4, align 8
  %9 = getelementptr inbounds %struct.Gia_Man_t_, ptr %8, i32 0, i32 28
  %10 = load ptr, ptr %9, align 8
  %11 = load i32, ptr %5, align 4
  %12 = sext i32 %11 to i64
  %13 = getelementptr inbounds i32, ptr %10, i64 %12
  store i32 %7, ptr %13, align 4
  ret void
}

; Function Attrs: nounwind uwtable
define internal void @Gia_ObjSetRepr(ptr noundef %0, i32 noundef %1, i32 noundef %2) #0 {
  %4 = alloca ptr, align 8
  %5 = alloca i32, align 4
  %6 = alloca i32, align 4
  store ptr %0, ptr %4, align 8
  store i32 %1, ptr %5, align 4
  store i32 %2, ptr %6, align 4
  %7 = load i32, ptr %6, align 4
  %8 = load ptr, ptr %4, align 8
  %9 = getelementptr inbounds %struct.Gia_Man_t_, ptr %8, i32 0, i32 27
  %10 = load ptr, ptr %9, align 8
  %11 = load i32, ptr %5, align 4
  %12 = sext i32 %11 to i64
  %13 = getelementptr inbounds %struct.Gia_Rpr_t_, ptr %10, i64 %12
  %14 = load i32, ptr %13, align 4
  %15 = and i32 %7, 268435455
  %16 = and i32 %14, -268435456
  %17 = or i32 %16, %15
  store i32 %17, ptr %13, align 4
  ret void
}

; Function Attrs: nounwind uwtable
define internal i32 @Cec2_ObjSimEqual(ptr noundef %0, i32 noundef %1, i32 noundef %2) #0 {
  %4 = alloca i32, align 4
  %5 = alloca ptr, align 8
  %6 = alloca i32, align 4
  %7 = alloca i32, align 4
  %8 = alloca i32, align 4
  %9 = alloca ptr, align 8
  %10 = alloca ptr, align 8
  store ptr %0, ptr %5, align 8
  store i32 %1, ptr %6, align 4
  store i32 %2, ptr %7, align 4
  %11 = load ptr, ptr %5, align 8
  %12 = load i32, ptr %6, align 4
  %13 = call ptr @Cec2_ObjSim(ptr noundef %11, i32 noundef %12)
  store ptr %13, ptr %9, align 8
  %14 = load ptr, ptr %5, align 8
  %15 = load i32, ptr %7, align 4
  %16 = call ptr @Cec2_ObjSim(ptr noundef %14, i32 noundef %15)
  store ptr %16, ptr %10, align 8
  %17 = load ptr, ptr %9, align 8
  %18 = getelementptr inbounds i64, ptr %17, i64 0
  %19 = load i64, ptr %18, align 8
  %20 = and i64 %19, 1
  %21 = load ptr, ptr %10, align 8
  %22 = getelementptr inbounds i64, ptr %21, i64 0
  %23 = load i64, ptr %22, align 8
  %24 = and i64 %23, 1
  %25 = icmp eq i64 %20, %24
  br i1 %25, label %26, label %51

26:                                               ; preds = %3
  store i32 0, ptr %8, align 4
  br label %27

27:                                               ; preds = %47, %26
  %28 = load i32, ptr %8, align 4
  %29 = load ptr, ptr %5, align 8
  %30 = getelementptr inbounds %struct.Gia_Man_t_, ptr %29, i32 0, i32 109
  %31 = load i32, ptr %30, align 8
  %32 = icmp slt i32 %28, %31
  br i1 %32, label %33, label %50

33:                                               ; preds = %27
  %34 = load ptr, ptr %9, align 8
  %35 = load i32, ptr %8, align 4
  %36 = sext i32 %35 to i64
  %37 = getelementptr inbounds i64, ptr %34, i64 %36
  %38 = load i64, ptr %37, align 8
  %39 = load ptr, ptr %10, align 8
  %40 = load i32, ptr %8, align 4
  %41 = sext i32 %40 to i64
  %42 = getelementptr inbounds i64, ptr %39, i64 %41
  %43 = load i64, ptr %42, align 8
  %44 = icmp ne i64 %38, %43
  br i1 %44, label %45, label %46

45:                                               ; preds = %33
  store i32 0, ptr %4, align 4
  br label %77

46:                                               ; preds = %33
  br label %47

47:                                               ; preds = %46
  %48 = load i32, ptr %8, align 4
  %49 = add nsw i32 %48, 1
  store i32 %49, ptr %8, align 4
  br label %27, !llvm.loop !18

50:                                               ; preds = %27
  store i32 1, ptr %4, align 4
  br label %77

51:                                               ; preds = %3
  store i32 0, ptr %8, align 4
  br label %52

52:                                               ; preds = %73, %51
  %53 = load i32, ptr %8, align 4
  %54 = load ptr, ptr %5, align 8
  %55 = getelementptr inbounds %struct.Gia_Man_t_, ptr %54, i32 0, i32 109
  %56 = load i32, ptr %55, align 8
  %57 = icmp slt i32 %53, %56
  br i1 %57, label %58, label %76

58:                                               ; preds = %52
  %59 = load ptr, ptr %9, align 8
  %60 = load i32, ptr %8, align 4
  %61 = sext i32 %60 to i64
  %62 = getelementptr inbounds i64, ptr %59, i64 %61
  %63 = load i64, ptr %62, align 8
  %64 = load ptr, ptr %10, align 8
  %65 = load i32, ptr %8, align 4
  %66 = sext i32 %65 to i64
  %67 = getelementptr inbounds i64, ptr %64, i64 %66
  %68 = load i64, ptr %67, align 8
  %69 = xor i64 %68, -1
  %70 = icmp ne i64 %63, %69
  br i1 %70, label %71, label %72

71:                                               ; preds = %58
  store i32 0, ptr %4, align 4
  br label %77

72:                                               ; preds = %58
  br label %73

73:                                               ; preds = %72
  %74 = load i32, ptr %8, align 4
  %75 = add nsw i32 %74, 1
  store i32 %75, ptr %8, align 4
  br label %52, !llvm.loop !19

76:                                               ; preds = %52
  store i32 1, ptr %4, align 4
  br label %77

77:                                               ; preds = %76, %71, %50, %45
  %78 = load i32, ptr %4, align 4
  ret i32 %78
}

; Function Attrs: nounwind uwtable
define internal i32 @Gia_ObjNext(ptr noundef %0, i32 noundef %1) #0 {
  %3 = alloca ptr, align 8
  %4 = alloca i32, align 4
  store ptr %0, ptr %3, align 8
  store i32 %1, ptr %4, align 4
  %5 = load ptr, ptr %3, align 8
  %6 = getelementptr inbounds %struct.Gia_Man_t_, ptr %5, i32 0, i32 28
  %7 = load ptr, ptr %6, align 8
  %8 = load i32, ptr %4, align 4
  %9 = sext i32 %8 to i64
  %10 = getelementptr inbounds i32, ptr %7, i64 %9
  %11 = load i32, ptr %10, align 4
  ret i32 %11
}

; Function Attrs: nounwind uwtable
define void @Cec2_ManSimClassRefineOne(ptr noundef %0, i32 noundef %1) #0 {
  %3 = alloca ptr, align 8
  %4 = alloca i32, align 4
  %5 = alloca i32, align 4
  %6 = alloca i32, align 4
  %7 = alloca i32, align 4
  %8 = alloca i32, align 4
  store ptr %0, ptr %3, align 8
  store i32 %1, ptr %4, align 4
  %9 = load i32, ptr %4, align 4
  store i32 %9, ptr %6, align 4
  %10 = load ptr, ptr %3, align 8
  %11 = load i32, ptr %4, align 4
  %12 = call i32 @Gia_ObjNext(ptr noundef %10, i32 noundef %11)
  store i32 %12, ptr %8, align 4
  br label %13

13:                                               ; preds = %26, %2
  %14 = load i32, ptr %8, align 4
  %15 = icmp sgt i32 %14, 0
  br i1 %15, label %16, label %30

16:                                               ; preds = %13
  %17 = load ptr, ptr %3, align 8
  %18 = load i32, ptr %4, align 4
  %19 = load i32, ptr %8, align 4
  %20 = call i32 @Cec2_ObjSimEqual(ptr noundef %17, i32 noundef %18, i32 noundef %19)
  %21 = icmp ne i32 %20, 0
  br i1 %21, label %22, label %24

22:                                               ; preds = %16
  %23 = load i32, ptr %8, align 4
  store i32 %23, ptr %6, align 4
  br label %25

24:                                               ; preds = %16
  br label %30

25:                                               ; preds = %22
  br label %26

26:                                               ; preds = %25
  %27 = load ptr, ptr %3, align 8
  %28 = load i32, ptr %8, align 4
  %29 = call i32 @Gia_ObjNext(ptr noundef %27, i32 noundef %28)
  store i32 %29, ptr %8, align 4
  br label %13, !llvm.loop !30

30:                                               ; preds = %24, %13
  %31 = load i32, ptr %8, align 4
  %32 = icmp sle i32 %31, 0
  br i1 %32, label %33, label %34

33:                                               ; preds = %30
  br label %73

34:                                               ; preds = %30
  %35 = load ptr, ptr %3, align 8
  %36 = load i32, ptr %8, align 4
  call void @Gia_ObjSetRepr(ptr noundef %35, i32 noundef %36, i32 noundef 268435455)
  %37 = load i32, ptr %8, align 4
  store i32 %37, ptr %7, align 4
  %38 = load ptr, ptr %3, align 8
  %39 = load i32, ptr %8, align 4
  %40 = call i32 @Gia_ObjNext(ptr noundef %38, i32 noundef %39)
  store i32 %40, ptr %5, align 4
  br label %41

41:                                               ; preds = %64, %34
  %42 = load i32, ptr %5, align 4
  %43 = icmp sgt i32 %42, 0
  br i1 %43, label %44, label %68

44:                                               ; preds = %41
  %45 = load ptr, ptr %3, align 8
  %46 = load i32, ptr %4, align 4
  %47 = load i32, ptr %5, align 4
  %48 = call i32 @Cec2_ObjSimEqual(ptr noundef %45, i32 noundef %46, i32 noundef %47)
  %49 = icmp ne i32 %48, 0
  br i1 %49, label %50, label %55

50:                                               ; preds = %44
  %51 = load ptr, ptr %3, align 8
  %52 = load i32, ptr %6, align 4
  %53 = load i32, ptr %5, align 4
  call void @Gia_ObjSetNext(ptr noundef %51, i32 noundef %52, i32 noundef %53)
  %54 = load i32, ptr %5, align 4
  store i32 %54, ptr %6, align 4
  br label %63

55:                                               ; preds = %44
  %56 = load ptr, ptr %3, align 8
  %57 = load i32, ptr %5, align 4
  %58 = load i32, ptr %8, align 4
  call void @Gia_ObjSetRepr(ptr noundef %56, i32 noundef %57, i32 noundef %58)
  %59 = load ptr, ptr %3, align 8
  %60 = load i32, ptr %7, align 4
  %61 = load i32, ptr %5, align 4
  call void @Gia_ObjSetNext(ptr noundef %59, i32 noundef %60, i32 noundef %61)
  %62 = load i32, ptr %5, align 4
  store i32 %62, ptr %7, align 4
  br label %63

63:                                               ; preds = %55, %50
  br label %64

64:                                               ; preds = %63
  %65 = load ptr, ptr %3, align 8
  %66 = load i32, ptr %5, align 4
  %67 = call i32 @Gia_ObjNext(ptr noundef %65, i32 noundef %66)
  store i32 %67, ptr %5, align 4
  br label %41, !llvm.loop !31

68:                                               ; preds = %41
  %69 = load ptr, ptr %3, align 8
  %70 = load i32, ptr %6, align 4
  call void @Gia_ObjSetNext(ptr noundef %69, i32 noundef %70, i32 noundef -1)
  %71 = load ptr, ptr %3, align 8
  %72 = load i32, ptr %7, align 4
  call void @Gia_ObjSetNext(ptr noundef %71, i32 noundef %72, i32 noundef -1)
  br label %73

73:                                               ; preds = %68, %33
  ret void
}